; Function Attrs: mustprogress uwtable
define hidden void @_ZN19fpa2bv_rewriter_cfgC2ER11ast_managerR16fpa2bv_converterRK10params_ref(ptr noundef nonnull align 8 dereferenceable(60) initializes((0, 60)) %0, ptr noundef nonnull align 8 dereferenceable(976) %1, ptr noundef nonnull align 8 dereferenceable(496) %2, ptr noundef nonnull align 8 dereferenceable(8) %3) unnamed_addr #3 align 2 personality ptr @__gxx_personality_v0 {
  %5 = alloca %class.symbol, align 8
  store ptr %1, ptr %0, align 8, !tbaa !3
  %6 = getelementptr inbounds nuw i8, ptr %0, i64 8
  %7 = ptrtoint ptr %1 to i64
  store i64 %7, ptr %6, align 8, !tbaa !3
  %8 = getelementptr inbounds nuw i8, ptr %0, i64 16
  store ptr null, ptr %8, align 8, !tbaa !8
  %9 = getelementptr inbounds nuw i8, ptr %0, i64 24
  store ptr %2, ptr %9, align 8, !tbaa !12
  %10 = getelementptr inbounds nuw i8, ptr %0, i64 32
  store i64 %7, ptr %10, align 8, !tbaa !3
  %11 = getelementptr inbounds nuw i8, ptr %0, i64 40
  store ptr null, ptr %11, align 8, !tbaa !14
  invoke void @_ZN19fpa2bv_rewriter_cfg11updt_paramsERK10params_ref(ptr noundef nonnull align 8 dereferenceable(60) %0, ptr noundef nonnull align 8 dereferenceable(8) %3)
          to label %12 unwind label %24

12:                                               ; preds = %4
  call void @llvm.lifetime.start.p0(i64 8, ptr nonnull %5) #21
  invoke void @_ZN6symbolC1EPKc(ptr noundef nonnull align 8 dereferenceable(8) %5, ptr noundef nonnull @.str)
          to label %13 unwind label %26

13:                                               ; preds = %12
  %14 = load ptr, ptr %0, align 8, !tbaa !17
  %15 = getelementptr inbounds nuw i8, ptr %14, i64 560
  %16 = invoke noundef zeroext i1 @_ZNK14family_manager10has_familyERK6symbol(ptr noundef nonnull align 8 dereferenceable(56) %15, ptr noundef nonnull align 8 dereferenceable(8) %5)
          to label %.noexc unwind label %26

.noexc:                                           ; preds = %13
  br i1 %16, label %17, label %_ZNK11ast_manager10has_pluginERK6symbol.exit.thread

17:                                               ; preds = %.noexc
  %18 = invoke noundef i32 @_ZNK14family_manager13get_family_idERK6symbol(ptr noundef nonnull align 8 dereferenceable(56) %15, ptr noundef nonnull align 8 dereferenceable(8) %5)
          to label %.noexc11 unwind label %26

.noexc11:                                         ; preds = %17
  %19 = invoke noundef ptr @_ZNK11ast_manager10get_pluginEi(ptr noundef nonnull align 8 dereferenceable(976) %14, i32 noundef %18)
          to label %_ZNK11ast_manager10has_pluginERK6symbol.exit unwind label %26

_ZNK11ast_manager10has_pluginERK6symbol.exit:     ; preds = %.noexc11
  %.not = icmp eq ptr %19, null
  br i1 %.not, label %_ZNK11ast_manager10has_pluginERK6symbol.exit.thread, label %28

_ZNK11ast_manager10has_pluginERK6symbol.exit.thread: ; preds = %.noexc, %_ZNK11ast_manager10has_pluginERK6symbol.exit
  %20 = load ptr, ptr %0, align 8, !tbaa !17
  %21 = invoke noalias noundef ptr @_ZN6memory8allocateEm(i64 noundef 608)
          to label %22 unwind label %26

22:                                               ; preds = %_ZNK11ast_manager10has_pluginERK6symbol.exit.thread
  invoke void @_ZN14bv_decl_pluginC1Ev(ptr noundef nonnull align 8 dereferenceable(608) %21)
          to label %23 unwind label %26

23:                                               ; preds = %22
  invoke void @_ZN11ast_manager15register_pluginERK6symbolP11decl_plugin(ptr noundef nonnull align 8 dereferenceable(976) %20, ptr noundef nonnull align 8 dereferenceable(8) %5, ptr noundef nonnull %21)
          to label %28 unwind label %26

24:                                               ; preds = %4
  %25 = landingpad { ptr, i32 }
          cleanup
  br label %29

26:                                               ; preds = %.noexc11, %17, %13, %23, %22, %_ZNK11ast_manager10has_pluginERK6symbol.exit.thread, %12
  %27 = landingpad { ptr, i32 }
          cleanup
  call void @llvm.lifetime.end.p0(i64 8, ptr nonnull %5) #21
  br label %29

28:                                               ; preds = %23, %_ZNK11ast_manager10has_pluginERK6symbol.exit
  call void @llvm.lifetime.end.p0(i64 8, ptr nonnull %5) #21
  ret void

29:                                               ; preds = %26, %24
  %.pn = phi { ptr, i32 } [ %27, %26 ], [ %25, %24 ]
  call void @_ZN15ref_vector_coreI4sort19ref_manager_wrapperIS0_11ast_managerEED2Ev(ptr noundef nonnull align 8 dereferenceable(16) %10) #21
  call void @_ZN15ref_vector_coreI4expr19ref_manager_wrapperIS0_11ast_managerEED2Ev(ptr noundef nonnull align 8 dereferenceable(16) %6) #21
  resume { ptr, i32 } %.pn
}